; Function Attrs: mustprogress uwtable
define noundef ptr @_ZNK6icu_7514LocaleCacheKeyINS_19CollationCacheEntryEE12createObjectEPKvR10UErrorCode(ptr nocapture nonnull readnone align 8 %this, ptr noundef %creationContext, ptr noundef nonnull align 4 dereferenceable(4) %errorCode) unnamed_addr #1 align 2 {
entry:
  %bundle.i = getelementptr inbounds i8, ptr %creationContext, i64 504
  %0 = load ptr, ptr %bundle.i, align 8
  %cmp.i = icmp eq ptr %0, null
  br i1 %cmp.i, label %if.then.i, label %if.else.i

if.then.i:                                        ; preds = %entry
  %call.i = tail call noundef ptr @_ZN6icu_7515CollationLoader14loadFromLocaleER10UErrorCode(ptr noundef nonnull align 8 dereferenceable(528) %creationContext, ptr noundef nonnull align 4 dereferenceable(4) %errorCode)
  br label %_ZN6icu_7515CollationLoader16createCacheEntryER10UErrorCode.exit

if.else.i:                                        ; preds = %entry
  %collations.i = getelementptr inbounds i8, ptr %creationContext, i64 512
  %1 = load ptr, ptr %collations.i, align 8
  %cmp2.i = icmp eq ptr %1, null
  br i1 %cmp2.i, label %if.then3.i, label %if.else5.i

if.then3.i:                                       ; preds = %if.else.i
  %call4.i = tail call noundef ptr @_ZN6icu_7515CollationLoader14loadFromBundleER10UErrorCode(ptr noundef nonnull align 8 dereferenceable(528) %creationContext, ptr noundef nonnull align 4 dereferenceable(4) %errorCode)
  br label %_ZN6icu_7515CollationLoader16createCacheEntryER10UErrorCode.exit

if.else5.i:                                       ; preds = %if.else.i
  %data.i = getelementptr inbounds i8, ptr %creationContext, i64 520
  %2 = load ptr, ptr %data.i, align 8
  %cmp6.i = icmp eq ptr %2, null
  br i1 %cmp6.i, label %if.then7.i, label %if.else9.i

if.then7.i:                                       ; preds = %if.else5.i
  %call8.i = tail call noundef ptr @_ZN6icu_7515CollationLoader18loadFromCollationsER10UErrorCode(ptr noundef nonnull align 8 dereferenceable(528) %creationContext, ptr noundef nonnull align 4 dereferenceable(4) %errorCode)
  br label %_ZN6icu_7515CollationLoader16createCacheEntryER10UErrorCode.exit

if.else9.i:                                       ; preds = %if.else5.i
  %call10.i = tail call noundef ptr @_ZN6icu_7515CollationLoader12loadFromDataER10UErrorCode(ptr noundef nonnull align 8 dereferenceable(528) %creationContext, ptr noundef nonnull align 4 dereferenceable(4) %errorCode)
  br label %_ZN6icu_7515CollationLoader16createCacheEntryER10UErrorCode.exit

_ZN6icu_7515CollationLoader16createCacheEntryER10UErrorCode.exit: ; preds = %if.then.i, %if.then3.i, %if.then7.i, %if.else9.i
  %retval.0.i = phi ptr [ %call.i, %if.then.i ], [ %call4.i, %if.then3.i ], [ %call8.i, %if.then7.i ], [ %call10.i, %if.else9.i ]
  ret ptr %retval.0.i
}